; Function Attrs: mustprogress nofree norecurse nosync nounwind willreturn memory(read, argmem: readwrite, inaccessiblemem: none) uwtable
define noundef range(i32 0, 2) i32 @_ZN12duckdb_miniz31mz_zip_reader_is_file_encryptedEPNS_14mz_zip_archiveEj(ptr noundef captures(address_is_null) %0, i32 noundef %1) local_unnamed_addr #16 {
  %.not.i8 = icmp eq ptr %0, null
  br i1 %.not.i8, label %_ZN12duckdb_minizL16mz_zip_set_errorEPNS_14mz_zip_archiveENS_12mz_zip_errorE.exit, label %3

3:                                                ; preds = %2
  %4 = getelementptr inbounds nuw i8, ptr %0, i64 104
  %5 = load ptr, ptr %4, align 8, !tbaa !204
  %.not12.i = icmp eq ptr %5, null
  br i1 %.not12.i, label %.thread, label %6

6:                                                ; preds = %3
  %7 = getelementptr inbounds nuw i8, ptr %0, i64 16
  %8 = load i32, ptr %7, align 8, !tbaa !230
  %.not13.i = icmp ult i32 %1, %8
  br i1 %.not13.i, label %_ZN12duckdb_minizL14mz_zip_get_cdhEPNS_14mz_zip_archiveEj.exit, label %.thread

_ZN12duckdb_minizL14mz_zip_get_cdhEPNS_14mz_zip_archiveEj.exit: ; preds = %6
  %9 = load ptr, ptr %5, align 8, !tbaa !235
  %.not = icmp eq ptr %9, null
  br i1 %.not, label %.thread, label %11

.thread:                                          ; preds = %3, %6, %_ZN12duckdb_minizL14mz_zip_get_cdhEPNS_14mz_zip_archiveEj.exit
  %10 = getelementptr inbounds nuw i8, ptr %0, i64 28
  store i32 24, ptr %10, align 4, !tbaa !213
  br label %_ZN12duckdb_minizL16mz_zip_set_errorEPNS_14mz_zip_archiveENS_12mz_zip_errorE.exit

11:                                               ; preds = %_ZN12duckdb_minizL14mz_zip_get_cdhEPNS_14mz_zip_archiveEj.exit
  %12 = getelementptr inbounds nuw i8, ptr %5, i64 32
  %13 = load ptr, ptr %12, align 8, !tbaa !236
  %14 = zext i32 %1 to i64
  %15 = getelementptr inbounds nuw i32, ptr %13, i64 %14
  %16 = load i32, ptr %15, align 4, !tbaa !10
  %17 = zext i32 %16 to i64
  %18 = getelementptr inbounds nuw i8, ptr %9, i64 %17
  %19 = getelementptr inbounds nuw i8, ptr %18, i64 8
  %20 = load i8, ptr %19, align 1, !tbaa !3
  %21 = and i8 %20, 65
  %22 = icmp ne i8 %21, 0
  %23 = zext i1 %22 to i32
  br label %_ZN12duckdb_minizL16mz_zip_set_errorEPNS_14mz_zip_archiveENS_12mz_zip_errorE.exit

_ZN12duckdb_minizL16mz_zip_set_errorEPNS_14mz_zip_archiveENS_12mz_zip_errorE.exit: ; preds = %.thread, %2, %11
  %.0 = phi i32 [ %23, %11 ], [ 0, %2 ], [ 0, %.thread ]
  ret i32 %.0
}